; Function Attrs: nofree nounwind memory(readwrite, argmem: read) uwtable
define noalias noundef ptr @Gia_ManToMiniLutAttr(ptr noundef readonly captures(none) %0, ptr noundef readonly captures(none) %1) local_unnamed_addr #10 {
  %3 = getelementptr i8, ptr %1, i64 4
  %.val13 = load i32, ptr %3, align 4, !tbaa !73
  %4 = sext i32 %.val13 to i64
  %5 = tail call noalias ptr @calloc(i64 noundef %4, i64 noundef 1) #28
  %6 = getelementptr i8, ptr %0, i64 24
  %.val14 = load i32, ptr %6, align 8, !tbaa !48
  %7 = icmp sgt i32 %.val14, 1
  br i1 %7, label %.lr.ph, label %._crit_edge

.lr.ph:                                           ; preds = %2
  %8 = getelementptr i8, ptr %0, i64 264
  %.val15 = load ptr, ptr %8, align 8, !tbaa !90
  %9 = getelementptr i8, ptr %.val15, i64 8
  %.val15.val = load ptr, ptr %9, align 8, !tbaa !11
  %10 = getelementptr i8, ptr %0, i64 32
  %wide.trip.count = zext nneg i32 %.val14 to i64
  br label %11

11:                                               ; preds = %.lr.ph, %27
  %indvars.iv = phi i64 [ 1, %.lr.ph ], [ %indvars.iv.next, %27 ]
  %12 = getelementptr inbounds nuw i32, ptr %.val15.val, i64 %indvars.iv
  %13 = load i32, ptr %12, align 4, !tbaa !10
  %.not17 = icmp eq i32 %13, 0
  br i1 %.not17, label %27, label %14

14:                                               ; preds = %11
  %15 = sext i32 %13 to i64
  %16 = getelementptr inbounds i32, ptr %.val15.val, i64 %15
  %17 = getelementptr inbounds nuw i8, ptr %16, i64 4
  %18 = load i32, ptr %16, align 4, !tbaa !10
  %19 = sext i32 %18 to i64
  %20 = getelementptr inbounds i32, ptr %17, i64 %19
  %21 = load i32, ptr %20, align 4, !tbaa !10
  %.not12 = icmp sgt i32 %21, -1
  br i1 %.not12, label %27, label %22

22:                                               ; preds = %14
  %.val = load ptr, ptr %10, align 8, !tbaa !41
  %23 = getelementptr inbounds nuw %struct.Gia_Obj_t_, ptr %.val, i64 %indvars.iv, i32 1
  %24 = load i32, ptr %23, align 4, !tbaa !45
  %25 = zext i32 %24 to i64
  %26 = getelementptr inbounds nuw i8, ptr %5, i64 %25
  store i8 1, ptr %26, align 1, !tbaa !66
  br label %27

27:                                               ; preds = %11, %22, %14
  %indvars.iv.next = add nuw nsw i64 %indvars.iv, 1
  %exitcond.not = icmp eq i64 %indvars.iv.next, %wide.trip.count
  br i1 %exitcond.not, label %._crit_edge, label %11, !llvm.loop !110

._crit_edge:                                      ; preds = %27, %2
  ret ptr %5
}